target datalayout = "e-m:e-p270:32:32-p271:32:32-p272:64:64-i64:64-i128:128-f80:128-n8:16:32:64-S128"
target triple = "x86_64-pc-linux-gnu"

%struct.sp_int = type { i16, i16, [129 x i64] }

; Function Attrs: nounwind uwtable
define internal i32 @_sp_sqr(ptr noundef %0, ptr noundef %1) #0 {
  %3 = alloca ptr, align 8
  %4 = alloca ptr, align 8
  %5 = alloca i32, align 4
  %6 = alloca i16, align 2
  %7 = alloca i32, align 4
  %8 = alloca i16, align 2
  %9 = alloca ptr, align 8
  %10 = alloca i64, align 8
  %11 = alloca i128, align 16
  %12 = alloca i128, align 16
  %13 = alloca i128, align 16
  %14 = alloca i32, align 4
  store ptr %0, ptr %3, align 8, !tbaa !3
  store ptr %1, ptr %4, align 8, !tbaa !3
  call void @llvm.lifetime.start.p0(i64 4, ptr %5) #8
  store i32 0, ptr %5, align 4, !tbaa !8
  call void @llvm.lifetime.start.p0(i64 2, ptr %6) #8
  call void @llvm.lifetime.start.p0(i64 4, ptr %7) #8
  call void @llvm.lifetime.start.p0(i64 2, ptr %8) #8
  %15 = load ptr, ptr %3, align 8, !tbaa !3
  %16 = getelementptr inbounds nuw %struct.sp_int, ptr %15, i32 0, i32 0
  %17 = load i16, ptr %16, align 8, !tbaa !15
  %18 = zext i16 %17 to i32
  %19 = mul nsw i32 %18, 2
  %20 = zext i32 %19 to i64
  %21 = call ptr @llvm.stacksave.p0()
  store ptr %21, ptr %9, align 8
  %22 = alloca i64, i64 %20, align 16
  store i64 %20, ptr %10, align 8
  %23 = load i32, ptr %5, align 4, !tbaa !8
  %24 = icmp eq i32 %23, 0
  br i1 %24, label %25, label %234

25:                                               ; preds = %2
  call void @llvm.lifetime.start.p0(i64 16, ptr %11) #8
  call void @llvm.lifetime.start.p0(i64 16, ptr %12) #8
  call void @llvm.lifetime.start.p0(i64 16, ptr %13) #8
  %26 = load ptr, ptr %3, align 8, !tbaa !3
  %27 = getelementptr inbounds nuw %struct.sp_int, ptr %26, i32 0, i32 2
  %28 = getelementptr inbounds [129 x i64], ptr %27, i64 0, i64 0
  %29 = load i64, ptr %28, align 8, !tbaa !16
  %30 = zext i64 %29 to i128
  %31 = load ptr, ptr %3, align 8, !tbaa !3
  %32 = getelementptr inbounds nuw %struct.sp_int, ptr %31, i32 0, i32 2
  %33 = getelementptr inbounds [129 x i64], ptr %32, i64 0, i64 0
  %34 = load i64, ptr %33, align 8, !tbaa !16
  %35 = zext i64 %34 to i128
  %36 = mul i128 %30, %35
  store i128 %36, ptr %11, align 16, !tbaa !47
  %37 = load i128, ptr %11, align 16, !tbaa !47
  %38 = trunc i128 %37 to i64
  %39 = getelementptr inbounds i64, ptr %22, i64 0
  store i64 %38, ptr %39, align 16, !tbaa !16
  %40 = load i128, ptr %11, align 16, !tbaa !47
  %41 = lshr i128 %40, 64
  %42 = trunc i128 %41 to i64
  %43 = zext i64 %42 to i128
  store i128 %43, ptr %12, align 16, !tbaa !47
  store i128 0, ptr %13, align 16, !tbaa !47
  store i16 1, ptr %8, align 2, !tbaa !32
  br label %44

44:                                               ; preds = %173, %25
  %45 = load i16, ptr %8, align 2, !tbaa !32
  %46 = zext i16 %45 to i32
  %47 = load ptr, ptr %3, align 8, !tbaa !3
  %48 = getelementptr inbounds nuw %struct.sp_int, ptr %47, i32 0, i32 0
  %49 = load i16, ptr %48, align 8, !tbaa !15
  %50 = zext i16 %49 to i32
  %51 = sub nsw i32 %50, 1
  %52 = mul nsw i32 %51, 2
  %53 = trunc i32 %52 to i16
  %54 = zext i16 %53 to i32
  %55 = icmp sle i32 %46, %54
  br i1 %55, label %56, label %176

56:                                               ; preds = %44
  %57 = load i16, ptr %8, align 2, !tbaa !32
  %58 = zext i16 %57 to i32
  %59 = sdiv i32 %58, 2
  %60 = trunc i32 %59 to i16
  store i16 %60, ptr %6, align 2, !tbaa !32
  %61 = load i16, ptr %8, align 2, !tbaa !32
  %62 = zext i16 %61 to i32
  %63 = load i16, ptr %6, align 2, !tbaa !32
  %64 = zext i16 %63 to i32
  %65 = sub nsw i32 %62, %64
  store i32 %65, ptr %7, align 4, !tbaa !8
  %66 = load i16, ptr %6, align 2, !tbaa !32
  %67 = zext i16 %66 to i32
  %68 = load i32, ptr %7, align 4, !tbaa !8
  %69 = icmp eq i32 %67, %68
  br i1 %69, label %70, label %97

70:                                               ; preds = %56
  %71 = load ptr, ptr %3, align 8, !tbaa !3
  %72 = getelementptr inbounds nuw %struct.sp_int, ptr %71, i32 0, i32 2
  %73 = load i16, ptr %6, align 2, !tbaa !32
  %74 = zext i16 %73 to i64
  %75 = getelementptr inbounds nuw [129 x i64], ptr %72, i64 0, i64 %74
  %76 = load i64, ptr %75, align 8, !tbaa !16
  %77 = zext i64 %76 to i128
  %78 = load ptr, ptr %3, align 8, !tbaa !3
  %79 = getelementptr inbounds nuw %struct.sp_int, ptr %78, i32 0, i32 2
  %80 = load i32, ptr %7, align 4, !tbaa !8
  %81 = sext i32 %80 to i64
  %82 = getelementptr inbounds [129 x i64], ptr %79, i64 0, i64 %81
  %83 = load i64, ptr %82, align 8, !tbaa !16
  %84 = zext i64 %83 to i128
  %85 = mul i128 %77, %84
  store i128 %85, ptr %11, align 16, !tbaa !47
  %86 = load i128, ptr %11, align 16, !tbaa !47
  %87 = trunc i128 %86 to i64
  %88 = zext i64 %87 to i128
  %89 = load i128, ptr %12, align 16, !tbaa !47
  %90 = add i128 %89, %88
  store i128 %90, ptr %12, align 16, !tbaa !47
  %91 = load i128, ptr %11, align 16, !tbaa !47
  %92 = lshr i128 %91, 64
  %93 = trunc i128 %92 to i64
  %94 = zext i64 %93 to i128
  %95 = load i128, ptr %13, align 16, !tbaa !47
  %96 = add i128 %95, %94
  store i128 %96, ptr %13, align 16, !tbaa !47
  br label %97

97:                                               ; preds = %70, %56
  %98 = load i16, ptr %6, align 2, !tbaa !32
  %99 = add i16 %98, 1
  store i16 %99, ptr %6, align 2, !tbaa !32
  %100 = load i32, ptr %7, align 4, !tbaa !8
  %101 = add nsw i32 %100, -1
  store i32 %101, ptr %7, align 4, !tbaa !8
  br label %102

102:                                              ; preds = %153, %97
  %103 = load i16, ptr %6, align 2, !tbaa !32
  %104 = zext i16 %103 to i32
  %105 = load ptr, ptr %3, align 8, !tbaa !3
  %106 = getelementptr inbounds nuw %struct.sp_int, ptr %105, i32 0, i32 0
  %107 = load i16, ptr %106, align 8, !tbaa !15
  %108 = zext i16 %107 to i32
  %109 = icmp slt i32 %104, %108
  br i1 %109, label %110, label %113

110:                                              ; preds = %102
  %111 = load i32, ptr %7, align 4, !tbaa !8
  %112 = icmp sge i32 %111, 0
  br label %113

113:                                              ; preds = %110, %102
  %114 = phi i1 [ false, %102 ], [ %112, %110 ]
  br i1 %114, label %115, label %158

115:                                              ; preds = %113
  %116 = load ptr, ptr %3, align 8, !tbaa !3
  %117 = getelementptr inbounds nuw %struct.sp_int, ptr %116, i32 0, i32 2
  %118 = load i16, ptr %6, align 2, !tbaa !32
  %119 = zext i16 %118 to i64
  %120 = getelementptr inbounds nuw [129 x i64], ptr %117, i64 0, i64 %119
  %121 = load i64, ptr %120, align 8, !tbaa !16
  %122 = zext i64 %121 to i128
  %123 = load ptr, ptr %3, align 8, !tbaa !3
  %124 = getelementptr inbounds nuw %struct.sp_int, ptr %123, i32 0, i32 2
  %125 = load i32, ptr %7, align 4, !tbaa !8
  %126 = sext i32 %125 to i64
  %127 = getelementptr inbounds [129 x i64], ptr %124, i64 0, i64 %126
  %128 = load i64, ptr %127, align 8, !tbaa !16
  %129 = zext i64 %128 to i128
  %130 = mul i128 %122, %129
  store i128 %130, ptr %11, align 16, !tbaa !47
  %131 = load i128, ptr %11, align 16, !tbaa !47
  %132 = trunc i128 %131 to i64
  %133 = zext i64 %132 to i128
  %134 = load i128, ptr %12, align 16, !tbaa !47
  %135 = add i128 %134, %133
  store i128 %135, ptr %12, align 16, !tbaa !47
  %136 = load i128, ptr %11, align 16, !tbaa !47
  %137 = lshr i128 %136, 64
  %138 = trunc i128 %137 to i64
  %139 = zext i64 %138 to i128
  %140 = load i128, ptr %13, align 16, !tbaa !47
  %141 = add i128 %140, %139
  store i128 %141, ptr %13, align 16, !tbaa !47
  %142 = load i128, ptr %11, align 16, !tbaa !47
  %143 = trunc i128 %142 to i64
  %144 = zext i64 %143 to i128
  %145 = load i128, ptr %12, align 16, !tbaa !47
  %146 = add i128 %145, %144
  store i128 %146, ptr %12, align 16, !tbaa !47
  %147 = load i128, ptr %11, align 16, !tbaa !47
  %148 = lshr i128 %147, 64
  %149 = trunc i128 %148 to i64
  %150 = zext i64 %149 to i128
  %151 = load i128, ptr %13, align 16, !tbaa !47
  %152 = add i128 %151, %150
  store i128 %152, ptr %13, align 16, !tbaa !47
  br label %153

153:                                              ; preds = %115
  %154 = load i16, ptr %6, align 2, !tbaa !32
  %155 = add i16 %154, 1
  store i16 %155, ptr %6, align 2, !tbaa !32
  %156 = load i32, ptr %7, align 4, !tbaa !8
  %157 = add nsw i32 %156, -1
  store i32 %157, ptr %7, align 4, !tbaa !8
  br label %102, !llvm.loop !114

158:                                              ; preds = %113
  %159 = load i128, ptr %12, align 16, !tbaa !47
  %160 = trunc i128 %159 to i64
  %161 = load i16, ptr %8, align 2, !tbaa !32
  %162 = zext i16 %161 to i64
  %163 = getelementptr inbounds nuw i64, ptr %22, i64 %162
  store i64 %160, ptr %163, align 8, !tbaa !16
  %164 = load i128, ptr %12, align 16, !tbaa !47
  %165 = lshr i128 %164, 64
  store i128 %165, ptr %12, align 16, !tbaa !47
  %166 = load i128, ptr %13, align 16, !tbaa !47
  %167 = trunc i128 %166 to i64
  %168 = zext i64 %167 to i128
  %169 = load i128, ptr %12, align 16, !tbaa !47
  %170 = add i128 %169, %168
  store i128 %170, ptr %12, align 16, !tbaa !47
  %171 = load i128, ptr %13, align 16, !tbaa !47
  %172 = lshr i128 %171, 64
  store i128 %172, ptr %13, align 16, !tbaa !47
  br label %173

173:                                              ; preds = %158
  %174 = load i16, ptr %8, align 2, !tbaa !32
  %175 = add i16 %174, 1
  store i16 %175, ptr %8, align 2, !tbaa !32
  br label %44, !llvm.loop !115

176:                                              ; preds = %44
  %177 = load i128, ptr %12, align 16, !tbaa !47
  %178 = trunc i128 %177 to i64
  %179 = load i16, ptr %8, align 2, !tbaa !32
  %180 = zext i16 %179 to i64
  %181 = getelementptr inbounds nuw i64, ptr %22, i64 %180
  store i64 %178, ptr %181, align 8, !tbaa !16
  %182 = load i16, ptr %8, align 2, !tbaa !32
  %183 = zext i16 %182 to i32
  %184 = add nsw i32 %183, 1
  %185 = trunc i32 %184 to i16
  %186 = load ptr, ptr %4, align 8, !tbaa !3
  %187 = getelementptr inbounds nuw %struct.sp_int, ptr %186, i32 0, i32 0
  store i16 %185, ptr %187, align 8, !tbaa !15
  %188 = load ptr, ptr %4, align 8, !tbaa !3
  %189 = getelementptr inbounds nuw %struct.sp_int, ptr %188, i32 0, i32 2
  %190 = getelementptr inbounds [129 x i64], ptr %189, i64 0, i64 0
  %191 = load ptr, ptr %4, align 8, !tbaa !3
  %192 = getelementptr inbounds nuw %struct.sp_int, ptr %191, i32 0, i32 0
  %193 = load i16, ptr %192, align 8, !tbaa !15
  %194 = zext i16 %193 to i64
  %195 = mul i64 %194, 8
  call void @llvm.memcpy.p0.p0.i64(ptr align 8 %190, ptr align 16 %22, i64 %195, i1 false)
  br label %196

196:                                              ; preds = %176
  call void @llvm.lifetime.start.p0(i64 4, ptr %14) #8
  %197 = load ptr, ptr %4, align 8, !tbaa !3
  %198 = getelementptr inbounds nuw %struct.sp_int, ptr %197, i32 0, i32 0
  %199 = load i16, ptr %198, align 8, !tbaa !15
  %200 = zext i16 %199 to i32
  %201 = icmp sgt i32 %200, 0
  br i1 %201, label %202, label %231

202:                                              ; preds = %196
  %203 = load ptr, ptr %4, align 8, !tbaa !3
  %204 = getelementptr inbounds nuw %struct.sp_int, ptr %203, i32 0, i32 0
  %205 = load i16, ptr %204, align 8, !tbaa !15
  %206 = zext i16 %205 to i32
  %207 = sub nsw i32 %206, 1
  store i32 %207, ptr %14, align 4, !tbaa !8
  br label %208

208:                                              ; preds = %222, %202
  %209 = load i32, ptr %14, align 4, !tbaa !8
  %210 = icmp sge i32 %209, 0
  br i1 %210, label %211, label %219

211:                                              ; preds = %208
  %212 = load ptr, ptr %4, align 8, !tbaa !3
  %213 = getelementptr inbounds nuw %struct.sp_int, ptr %212, i32 0, i32 2
  %214 = load i32, ptr %14, align 4, !tbaa !8
  %215 = sext i32 %214 to i64
  %216 = getelementptr inbounds [129 x i64], ptr %213, i64 0, i64 %215
  %217 = load i64, ptr %216, align 8, !tbaa !16
  %218 = icmp eq i64 %217, 0
  br label %219

219:                                              ; preds = %211, %208
  %220 = phi i1 [ false, %208 ], [ %218, %211 ]
  br i1 %220, label %221, label %225

221:                                              ; preds = %219
  br label %222

222:                                              ; preds = %221
  %223 = load i32, ptr %14, align 4, !tbaa !8
  %224 = add nsw i32 %223, -1
  store i32 %224, ptr %14, align 4, !tbaa !8
  br label %208, !llvm.loop !116

225:                                              ; preds = %219
  %226 = load i32, ptr %14, align 4, !tbaa !8
  %227 = add nsw i32 %226, 1
  %228 = trunc i32 %227 to i16
  %229 = load ptr, ptr %4, align 8, !tbaa !3
  %230 = getelementptr inbounds nuw %struct.sp_int, ptr %229, i32 0, i32 0
  store i16 %228, ptr %230, align 8, !tbaa !15
  br label %231

231:                                              ; preds = %225, %196
  call void @llvm.lifetime.end.p0(i64 4, ptr %14) #8
  br label %232

232:                                              ; preds = %231
  br label %233

233:                                              ; preds = %232
  call void @llvm.lifetime.end.p0(i64 16, ptr %13) #8
  call void @llvm.lifetime.end.p0(i64 16, ptr %12) #8
  call void @llvm.lifetime.end.p0(i64 16, ptr %11) #8
  br label %234

234:                                              ; preds = %233, %2
  %235 = load i32, ptr %5, align 4, !tbaa !8
  %236 = load ptr, ptr %9, align 8
  call void @llvm.stackrestore.p0(ptr %236)
  call void @llvm.lifetime.end.p0(i64 2, ptr %8) #8
  call void @llvm.lifetime.end.p0(i64 4, ptr %7) #8
  call void @llvm.lifetime.end.p0(i64 2, ptr %6) #8
  call void @llvm.lifetime.end.p0(i64 4, ptr %5) #8
  ret i32 %235
}